target datalayout = "e-m:e-p270:32:32-p271:32:32-p272:64:64-i64:64-i128:128-f80:128-n8:16:32:64-S128"
target triple = "x86_64-pc-linux-gnu"

%struct.dt_gpx_t = type { ptr, ptr, ptr, i32, i32, i32, i32, ptr }

@.str.2 = private unnamed_addr constant [114 x i8] c"generated/home/dtcxzyw/WorkSpace/Projects/compilers/llvm-opt-benchmark/bench/darktable/darktable/src/common/gpx.c\00", align 1
@__func__.dt_gpx_destroy = private unnamed_addr constant [15 x i8] c"dt_gpx_destroy\00", align 1
@.str.3 = private unnamed_addr constant [12 x i8] c"gpx != NULL\00", align 1

; Function Attrs: nounwind uwtable
define void @dt_gpx_destroy(ptr noundef %0) #0 {
  %2 = alloca ptr, align 8
  %3 = alloca i32, align 4
  %4 = alloca i32, align 4
  store ptr %0, ptr %2, align 8, !tbaa !17
  br label %5

5:                                                ; preds = %1
  call void @llvm.lifetime.start.p0(i64 4, ptr %3) #10
  %6 = load ptr, ptr %2, align 8, !tbaa !17
  %7 = icmp ne ptr %6, null
  br i1 %7, label %8, label %9

8:                                                ; preds = %5
  store i32 1, ptr %3, align 4, !tbaa !13
  br label %10

9:                                                ; preds = %5
  store i32 0, ptr %3, align 4, !tbaa !13
  br label %10

10:                                               ; preds = %9, %8
  %11 = load i32, ptr %3, align 4, !tbaa !13
  store i32 %11, ptr %4, align 4, !tbaa !13
  call void @llvm.lifetime.end.p0(i64 4, ptr %3) #10
  %12 = load i32, ptr %4, align 4, !tbaa !13
  %13 = sext i32 %12 to i64
  %14 = call i64 @llvm.expect.i64(i64 %13, i64 1)
  %15 = icmp ne i64 %14, 0
  br i1 %15, label %16, label %17

16:                                               ; preds = %10
  br label %18

17:                                               ; preds = %10
  call void @g_assertion_message_expr(ptr noundef null, ptr noundef @.str.2, i32 noundef 145, ptr noundef @__func__.dt_gpx_destroy, ptr noundef @.str.3) #12
  unreachable

18:                                               ; preds = %16
  br label %19

19:                                               ; preds = %18
  %20 = load ptr, ptr %2, align 8, !tbaa !17
  %21 = getelementptr inbounds nuw %struct.dt_gpx_t, ptr %20, i32 0, i32 0
  %22 = load ptr, ptr %21, align 8, !tbaa !22
  %23 = icmp ne ptr %22, null
  br i1 %23, label %24, label %28

24:                                               ; preds = %19
  %25 = load ptr, ptr %2, align 8, !tbaa !17
  %26 = getelementptr inbounds nuw %struct.dt_gpx_t, ptr %25, i32 0, i32 0
  %27 = load ptr, ptr %26, align 8, !tbaa !22
  call void @g_list_free_full(ptr noundef %27, ptr noundef @_track_pts_free)
  br label %28

28:                                               ; preds = %24, %19
  %29 = load ptr, ptr %2, align 8, !tbaa !17
  %30 = getelementptr inbounds nuw %struct.dt_gpx_t, ptr %29, i32 0, i32 1
  %31 = load ptr, ptr %30, align 8, !tbaa !26
  %32 = icmp ne ptr %31, null
  br i1 %32, label %33, label %37

33:                                               ; preds = %28
  %34 = load ptr, ptr %2, align 8, !tbaa !17
  %35 = getelementptr inbounds nuw %struct.dt_gpx_t, ptr %34, i32 0, i32 1
  %36 = load ptr, ptr %35, align 8, !tbaa !26
  call void @g_list_free_full(ptr noundef %36, ptr noundef @_track_seg_free)
  br label %37

37:                                               ; preds = %33, %28
  %38 = load ptr, ptr %2, align 8, !tbaa !17
  call void @g_free(ptr noundef %38)
  ret void
}