; Function Attrs: nounwind uwtable
define void @dt_gpx_destroy(ptr noundef %0) local_unnamed_addr #0 {
  %.not = icmp eq ptr %0, null
  br i1 %.not, label %2, label %3, !prof !28

2:                                                ; preds = %1
  tail call void @g_assertion_message_expr(ptr noundef null, ptr noundef nonnull @.str.2, i32 noundef 145, ptr noundef nonnull @__func__.dt_gpx_destroy, ptr noundef nonnull @.str.3) #13
  unreachable

3:                                                ; preds = %1
  %4 = load ptr, ptr %0, align 8, !tbaa !12
  %.not10 = icmp eq ptr %4, null
  br i1 %.not10, label %6, label %5

5:                                                ; preds = %3
  tail call void @g_list_free_full(ptr noundef nonnull %4, ptr noundef nonnull @_track_pts_free) #11
  br label %6

6:                                                ; preds = %5, %3
  %7 = getelementptr inbounds nuw i8, ptr %0, i64 8
  %8 = load ptr, ptr %7, align 8, !tbaa !18
  %.not11 = icmp eq ptr %8, null
  br i1 %.not11, label %10, label %9

9:                                                ; preds = %6
  tail call void @g_list_free_full(ptr noundef nonnull %8, ptr noundef nonnull @_track_seg_free) #11
  br label %10

10:                                               ; preds = %9, %6
  tail call void @g_free(ptr noundef nonnull %0) #11
  ret void
}